; ModuleID = '35/2527.c'
source_filename = "35/2527.c"
target datalayout = "e-m:e-p270:32:32-p271:32:32-p272:64:64-i64:64-f80:128-n8:16:32:64-S128"
target triple = "x86_64-pc-linux-gnu"

@.str = private unnamed_addr constant [6 x i8] c"%d,%d\00", align 1
@.str.1 = private unnamed_addr constant [3 x i8] c"%d\00", align 1
@.str.2 = private unnamed_addr constant [6 x i8] c"%d+%d\00", align 1
@.str.3 = private unnamed_addr constant [3 x i8] c"No\00", align 1

; Function Attrs: noinline nounwind uwtable
define dso_local i32 @main() #0 {
  %1 = alloca i32, align 4
  %2 = alloca [30 x [30 x i32]], align 16
  %3 = alloca i32, align 4
  %4 = alloca i32, align 4
  %5 = alloca [30 x i32], align 16
  %6 = alloca [30 x i32], align 16
  %7 = alloca i32, align 4
  %8 = alloca i32, align 4
  %9 = alloca i32, align 4
  %10 = alloca i32, align 4
  store i32 0, i32* %1, align 4
  %11 = call i32 (i8*, ...) @__isoc99_scanf(i8* getelementptr inbounds ([6 x i8], [6 x i8]* @.str, i64 0, i64 0), i32* %7, i32* %10)
  store i32 0, i32* %3, align 4
  br label %12

12:                                               ; preds = %33, %0
  %13 = load i32, i32* %3, align 4
  %14 = load i32, i32* %7, align 4
  %15 = icmp slt i32 %13, %14
  br i1 %15, label %16, label %36

16:                                               ; preds = %12
  store i32 0, i32* %4, align 4
  br label %17

17:                                               ; preds = %29, %16
  %18 = load i32, i32* %4, align 4
  %19 = load i32, i32* %10, align 4
  %20 = icmp slt i32 %18, %19
  br i1 %20, label %21, label %32

21:                                               ; preds = %17
  %22 = load i32, i32* %3, align 4
  %23 = sext i32 %22 to i64
  %24 = getelementptr inbounds [30 x [30 x i32]], [30 x [30 x i32]]* %2, i64 0, i64 %23
  %25 = load i32, i32* %4, align 4
  %26 = sext i32 %25 to i64
  %27 = getelementptr inbounds [30 x i32], [30 x i32]* %24, i64 0, i64 %26
  %28 = call i32 (i8*, ...) @__isoc99_scanf(i8* getelementptr inbounds ([3 x i8], [3 x i8]* @.str.1, i64 0, i64 0), i32* %27)
  br label %29

29:                                               ; preds = %21
  %30 = load i32, i32* %4, align 4
  %31 = add nsw i32 %30, 1
  store i32 %31, i32* %4, align 4
  br label %17

32:                                               ; preds = %17
  br label %33

33:                                               ; preds = %32
  %34 = load i32, i32* %3, align 4
  %35 = add nsw i32 %34, 1
  store i32 %35, i32* %3, align 4
  br label %12

36:                                               ; preds = %12
  store i32 0, i32* %3, align 4
  br label %37

37:                                               ; preds = %81, %36
  %38 = load i32, i32* %3, align 4
  %39 = load i32, i32* %7, align 4
  %40 = icmp slt i32 %38, %39
  br i1 %40, label %41, label %84

41:                                               ; preds = %37
  %42 = load i32, i32* %3, align 4
  %43 = sext i32 %42 to i64
  %44 = getelementptr inbounds [30 x [30 x i32]], [30 x [30 x i32]]* %2, i64 0, i64 %43
  %45 = getelementptr inbounds [30 x i32], [30 x i32]* %44, i64 0, i64 0
  %46 = load i32, i32* %45, align 8
  store i32 %46, i32* %8, align 4
  %47 = load i32, i32* %3, align 4
  %48 = sext i32 %47 to i64
  %49 = getelementptr inbounds [30 x i32], [30 x i32]* %5, i64 0, i64 %48
  store i32 0, i32* %49, align 4
  store i32 0, i32* %4, align 4
  br label %50

50:                                               ; preds = %77, %41
  %51 = load i32, i32* %4, align 4
  %52 = load i32, i32* %10, align 4
  %53 = icmp slt i32 %51, %52
  br i1 %53, label %54, label %80

54:                                               ; preds = %50
  %55 = load i32, i32* %3, align 4
  %56 = sext i32 %55 to i64
  %57 = getelementptr inbounds [30 x [30 x i32]], [30 x [30 x i32]]* %2, i64 0, i64 %56
  %58 = load i32, i32* %4, align 4
  %59 = sext i32 %58 to i64
  %60 = getelementptr inbounds [30 x i32], [30 x i32]* %57, i64 0, i64 %59
  %61 = load i32, i32* %60, align 4
  %62 = load i32, i32* %8, align 4
  %63 = icmp sgt i32 %61, %62
  br i1 %63, label %64, label %76

64:                                               ; preds = %54
  %65 = load i32, i32* %3, align 4
  %66 = sext i32 %65 to i64
  %67 = getelementptr inbounds [30 x [30 x i32]], [30 x [30 x i32]]* %2, i64 0, i64 %66
  %68 = load i32, i32* %4, align 4
  %69 = sext i32 %68 to i64
  %70 = getelementptr inbounds [30 x i32], [30 x i32]* %67, i64 0, i64 %69
  %71 = load i32, i32* %70, align 4
  store i32 %71, i32* %8, align 4
  %72 = load i32, i32* %4, align 4
  %73 = load i32, i32* %3, align 4
  %74 = sext i32 %73 to i64
  %75 = getelementptr inbounds [30 x i32], [30 x i32]* %5, i64 0, i64 %74
  store i32 %72, i32* %75, align 4
  br label %76

76:                                               ; preds = %64, %54
  br label %77

77:                                               ; preds = %76
  %78 = load i32, i32* %4, align 4
  %79 = add nsw i32 %78, 1
  store i32 %79, i32* %4, align 4
  br label %50

80:                                               ; preds = %50
  br label %81

81:                                               ; preds = %80
  %82 = load i32, i32* %3, align 4
  %83 = add nsw i32 %82, 1
  store i32 %83, i32* %3, align 4
  br label %37

84:                                               ; preds = %37
  store i32 0, i32* %3, align 4
  br label %85

85:                                               ; preds = %129, %84
  %86 = load i32, i32* %3, align 4
  %87 = load i32, i32* %10, align 4
  %88 = icmp slt i32 %86, %87
  br i1 %88, label %89, label %132

89:                                               ; preds = %85
  %90 = getelementptr inbounds [30 x [30 x i32]], [30 x [30 x i32]]* %2, i64 0, i64 0
  %91 = load i32, i32* %3, align 4
  %92 = sext i32 %91 to i64
  %93 = getelementptr inbounds [30 x i32], [30 x i32]* %90, i64 0, i64 %92
  %94 = load i32, i32* %93, align 4
  store i32 %94, i32* %8, align 4
  %95 = load i32, i32* %3, align 4
  %96 = sext i32 %95 to i64
  %97 = getelementptr inbounds [30 x i32], [30 x i32]* %6, i64 0, i64 %96
  store i32 0, i32* %97, align 4
  store i32 0, i32* %4, align 4
  br label %98

98:                                               ; preds = %125, %89
  %99 = load i32, i32* %4, align 4
  %100 = load i32, i32* %7, align 4
  %101 = icmp slt i32 %99, %100
  br i1 %101, label %102, label %128

102:                                              ; preds = %98
  %103 = load i32, i32* %4, align 4
  %104 = sext i32 %103 to i64
  %105 = getelementptr inbounds [30 x [30 x i32]], [30 x [30 x i32]]* %2, i64 0, i64 %104
  %106 = load i32, i32* %3, align 4
  %107 = sext i32 %106 to i64
  %108 = getelementptr inbounds [30 x i32], [30 x i32]* %105, i64 0, i64 %107
  %109 = load i32, i32* %108, align 4
  %110 = load i32, i32* %8, align 4
  %111 = icmp slt i32 %109, %110
  br i1 %111, label %112, label %124

112:                                              ; preds = %102
  %113 = load i32, i32* %4, align 4
  %114 = sext i32 %113 to i64
  %115 = getelementptr inbounds [30 x [30 x i32]], [30 x [30 x i32]]* %2, i64 0, i64 %114
  %116 = load i32, i32* %3, align 4
  %117 = sext i32 %116 to i64
  %118 = getelementptr inbounds [30 x i32], [30 x i32]* %115, i64 0, i64 %117
  %119 = load i32, i32* %118, align 4
  store i32 %119, i32* %8, align 4
  %120 = load i32, i32* %4, align 4
  %121 = load i32, i32* %3, align 4
  %122 = sext i32 %121 to i64
  %123 = getelementptr inbounds [30 x i32], [30 x i32]* %6, i64 0, i64 %122
  store i32 %120, i32* %123, align 4
  br label %124

124:                                              ; preds = %112, %102
  br label %125

125:                                              ; preds = %124
  %126 = load i32, i32* %4, align 4
  %127 = add nsw i32 %126, 1
  store i32 %127, i32* %4, align 4
  br label %98

128:                                              ; preds = %98
  br label %129

129:                                              ; preds = %128
  %130 = load i32, i32* %3, align 4
  %131 = add nsw i32 %130, 1
  store i32 %131, i32* %3, align 4
  br label %85

132:                                              ; preds = %85
  store i32 0, i32* %9, align 4
  store i32 0, i32* %3, align 4
  br label %133

133:                                              ; preds = %165, %132
  %134 = load i32, i32* %3, align 4
  %135 = load i32, i32* %7, align 4
  %136 = icmp slt i32 %134, %135
  br i1 %136, label %137, label %168

137:                                              ; preds = %133
  store i32 0, i32* %4, align 4
  br label %138

138:                                              ; preds = %161, %137
  %139 = load i32, i32* %4, align 4
  %140 = load i32, i32* %10, align 4
  %141 = icmp slt i32 %139, %140
  br i1 %141, label %142, label %164

142:                                              ; preds = %138
  %143 = load i32, i32* %3, align 4
  %144 = sext i32 %143 to i64
  %145 = getelementptr inbounds [30 x i32], [30 x i32]* %5, i64 0, i64 %144
  %146 = load i32, i32* %145, align 4
  %147 = load i32, i32* %4, align 4
  %148 = icmp eq i32 %146, %147
  br i1 %148, label %149, label %160

149:                                              ; preds = %142
  %150 = load i32, i32* %4, align 4
  %151 = sext i32 %150 to i64
  %152 = getelementptr inbounds [30 x i32], [30 x i32]* %6, i64 0, i64 %151
  %153 = load i32, i32* %152, align 4
  %154 = load i32, i32* %3, align 4
  %155 = icmp eq i32 %153, %154
  br i1 %155, label %156, label %160

156:                                              ; preds = %149
  %157 = load i32, i32* %3, align 4
  %158 = load i32, i32* %4, align 4
  %159 = call i32 (i8*, ...) @printf(i8* getelementptr inbounds ([6 x i8], [6 x i8]* @.str.2, i64 0, i64 0), i32 %157, i32 %158)
  store i32 1, i32* %9, align 4
  br label %160

160:                                              ; preds = %156, %149, %142
  br label %161

161:                                              ; preds = %160
  %162 = load i32, i32* %4, align 4
  %163 = add nsw i32 %162, 1
  store i32 %163, i32* %4, align 4
  br label %138

164:                                              ; preds = %138
  br label %165

165:                                              ; preds = %164
  %166 = load i32, i32* %3, align 4
  %167 = add nsw i32 %166, 1
  store i32 %167, i32* %3, align 4
  br label %133

168:                                              ; preds = %133
  %169 = load i32, i32* %9, align 4
  %170 = icmp eq i32 %169, 0
  br i1 %170, label %171, label %173

171:                                              ; preds = %168
  %172 = call i32 (i8*, ...) @printf(i8* getelementptr inbounds ([3 x i8], [3 x i8]* @.str.3, i64 0, i64 0))
  br label %173

173:                                              ; preds = %171, %168
  ret i32 0
}

declare dso_local i32 @__isoc99_scanf(i8*, ...) #1

declare dso_local i32 @printf(i8*, ...) #1


!llvm.module.flags = !{!0}
!llvm.ident = !{!1}

!0 = !{i32 1, !"wchar_size", i32 4}
!1 = !{!"clang version 10.0.0-4ubuntu1 "}
